; ModuleID = '22/660.c'
source_filename = "22/660.c"
target datalayout = "e-m:e-p270:32:32-p271:32:32-p272:64:64-i64:64-f80:128-n8:16:32:64-S128"
target triple = "x86_64-pc-linux-gnu"

@.str = private unnamed_addr constant [3 x i8] c"No\00", align 1
@.str.1 = private unnamed_addr constant [3 x i8] c"%d\00", align 1

; Function Attrs: noinline nounwind uwtable
define dso_local i32 @str2int(i8* %0, i32* %1) #0 {
  %3 = alloca i8*, align 8
  %4 = alloca i32*, align 8
  %5 = alloca i32, align 4
  %6 = alloca i32, align 4
  %7 = alloca i32, align 4
  %8 = alloca i32, align 4
  store i8* %0, i8** %3, align 8
  store i32* %1, i32** %4, align 8
  store i32 0, i32* %7, align 4
  store i32 0, i32* %8, align 4
  %9 = load i8*, i8** %3, align 8
  %10 = call i64 @strlen(i8* %9) #3
  %11 = trunc i64 %10 to i32
  store i32 %11, i32* %6, align 4
  br label %12

12:                                               ; preds = %47, %2
  %13 = load i32, i32* %8, align 4
  %14 = load i32, i32* %6, align 4
  %15 = icmp slt i32 %13, %14
  br i1 %15, label %16, label %56

16:                                               ; preds = %12
  store i32 0, i32* %5, align 4
  br label %17

17:                                               ; preds = %35, %16
  %18 = load i8*, i8** %3, align 8
  %19 = load i32, i32* %8, align 4
  %20 = sext i32 %19 to i64
  %21 = getelementptr inbounds i8, i8* %18, i64 %20
  %22 = load i8, i8* %21, align 1
  %23 = sext i8 %22 to i32
  %24 = icmp ne i32 %23, 44
  br i1 %24, label %25, label %33

25:                                               ; preds = %17
  %26 = load i8*, i8** %3, align 8
  %27 = load i32, i32* %8, align 4
  %28 = sext i32 %27 to i64
  %29 = getelementptr inbounds i8, i8* %26, i64 %28
  %30 = load i8, i8* %29, align 1
  %31 = sext i8 %30 to i32
  %32 = icmp ne i32 %31, 0
  br label %33

33:                                               ; preds = %25, %17
  %34 = phi i1 [ false, %17 ], [ %32, %25 ]
  br i1 %34, label %35, label %47

35:                                               ; preds = %33
  %36 = load i32, i32* %5, align 4
  %37 = mul nsw i32 %36, 10
  %38 = load i8*, i8** %3, align 8
  %39 = load i32, i32* %8, align 4
  %40 = add nsw i32 %39, 1
  store i32 %40, i32* %8, align 4
  %41 = sext i32 %39 to i64
  %42 = getelementptr inbounds i8, i8* %38, i64 %41
  %43 = load i8, i8* %42, align 1
  %44 = sext i8 %43 to i32
  %45 = add nsw i32 %37, %44
  %46 = sub nsw i32 %45, 48
  store i32 %46, i32* %5, align 4
  br label %17

47:                                               ; preds = %33
  %48 = load i32, i32* %5, align 4
  %49 = load i32*, i32** %4, align 8
  %50 = load i32, i32* %7, align 4
  %51 = add nsw i32 %50, 1
  store i32 %51, i32* %7, align 4
  %52 = sext i32 %50 to i64
  %53 = getelementptr inbounds i32, i32* %49, i64 %52
  store i32 %48, i32* %53, align 4
  %54 = load i32, i32* %8, align 4
  %55 = add nsw i32 %54, 1
  store i32 %55, i32* %8, align 4
  br label %12

56:                                               ; preds = %12
  %57 = load i32, i32* %7, align 4
  ret i32 %57
}

; Function Attrs: nounwind readonly
declare dso_local i64 @strlen(i8*) #1

; Function Attrs: noinline nounwind uwtable
define dso_local i32 @find2nd(i32 %0, i32* %1) #0 {
  %3 = alloca i32, align 4
  %4 = alloca i32, align 4
  %5 = alloca i32*, align 8
  %6 = alloca i32, align 4
  %7 = alloca i32, align 4
  %8 = alloca i32, align 4
  store i32 %0, i32* %4, align 4
  store i32* %1, i32** %5, align 8
  store i32 -1, i32* %7, align 4
  %9 = load i32*, i32** %5, align 8
  %10 = getelementptr inbounds i32, i32* %9, i64 0
  %11 = load i32, i32* %10, align 4
  store i32 %11, i32* %8, align 4
  %12 = load i32, i32* %4, align 4
  %13 = icmp eq i32 %12, 1
  br i1 %13, label %14, label %15

14:                                               ; preds = %2
  store i32 -1, i32* %3, align 4
  br label %69

15:                                               ; preds = %2
  store i32 1, i32* %6, align 4
  br label %16

16:                                               ; preds = %59, %15
  %17 = load i32, i32* %6, align 4
  %18 = load i32, i32* %4, align 4
  %19 = icmp slt i32 %17, %18
  br i1 %19, label %20, label %62

20:                                               ; preds = %16
  %21 = load i32*, i32** %5, align 8
  %22 = load i32, i32* %6, align 4
  %23 = sext i32 %22 to i64
  %24 = getelementptr inbounds i32, i32* %21, i64 %23
  %25 = load i32, i32* %24, align 4
  %26 = load i32, i32* %8, align 4
  %27 = icmp sgt i32 %25, %26
  br i1 %27, label %28, label %35

28:                                               ; preds = %20
  %29 = load i32, i32* %8, align 4
  store i32 %29, i32* %7, align 4
  %30 = load i32*, i32** %5, align 8
  %31 = load i32, i32* %6, align 4
  %32 = sext i32 %31 to i64
  %33 = getelementptr inbounds i32, i32* %30, i64 %32
  %34 = load i32, i32* %33, align 4
  store i32 %34, i32* %8, align 4
  br label %58

35:                                               ; preds = %20
  %36 = load i32*, i32** %5, align 8
  %37 = load i32, i32* %6, align 4
  %38 = sext i32 %37 to i64
  %39 = getelementptr inbounds i32, i32* %36, i64 %38
  %40 = load i32, i32* %39, align 4
  %41 = load i32, i32* %7, align 4
  %42 = icmp sgt i32 %40, %41
  br i1 %42, label %43, label %57

43:                                               ; preds = %35
  %44 = load i32*, i32** %5, align 8
  %45 = load i32, i32* %6, align 4
  %46 = sext i32 %45 to i64
  %47 = getelementptr inbounds i32, i32* %44, i64 %46
  %48 = load i32, i32* %47, align 4
  %49 = load i32, i32* %8, align 4
  %50 = icmp slt i32 %48, %49
  br i1 %50, label %51, label %57

51:                                               ; preds = %43
  %52 = load i32*, i32** %5, align 8
  %53 = load i32, i32* %6, align 4
  %54 = sext i32 %53 to i64
  %55 = getelementptr inbounds i32, i32* %52, i64 %54
  %56 = load i32, i32* %55, align 4
  store i32 %56, i32* %7, align 4
  br label %57

57:                                               ; preds = %51, %43, %35
  br label %58

58:                                               ; preds = %57, %28
  br label %59

59:                                               ; preds = %58
  %60 = load i32, i32* %6, align 4
  %61 = add nsw i32 %60, 1
  store i32 %61, i32* %6, align 4
  br label %16

62:                                               ; preds = %16
  %63 = load i32, i32* %7, align 4
  %64 = load i32, i32* %8, align 4
  %65 = icmp eq i32 %63, %64
  br i1 %65, label %66, label %67

66:                                               ; preds = %62
  store i32 -1, i32* %3, align 4
  br label %69

67:                                               ; preds = %62
  %68 = load i32, i32* %7, align 4
  store i32 %68, i32* %3, align 4
  br label %69

69:                                               ; preds = %67, %66, %14
  %70 = load i32, i32* %3, align 4
  ret i32 %70
}

; Function Attrs: noinline nounwind uwtable
define dso_local void @main() #0 {
  %1 = alloca [1000 x i8], align 16
  %2 = alloca [1000 x i32], align 16
  %3 = alloca i32, align 4
  %4 = alloca i32, align 4
  %5 = getelementptr inbounds [1000 x i8], [1000 x i8]* %1, i64 0, i64 0
  %6 = call i32 (i8*, ...) bitcast (i32 (...)* @gets to i32 (i8*, ...)*)(i8* %5)
  %7 = getelementptr inbounds [1000 x i8], [1000 x i8]* %1, i64 0, i64 0
  %8 = getelementptr inbounds [1000 x i32], [1000 x i32]* %2, i64 0, i64 0
  %9 = call i32 @str2int(i8* %7, i32* %8)
  store i32 %9, i32* %3, align 4
  %10 = load i32, i32* %3, align 4
  %11 = getelementptr inbounds [1000 x i32], [1000 x i32]* %2, i64 0, i64 0
  %12 = call i32 @find2nd(i32 %10, i32* %11)
  store i32 %12, i32* %4, align 4
  %13 = load i32, i32* %4, align 4
  %14 = icmp eq i32 %13, -1
  br i1 %14, label %15, label %17

15:                                               ; preds = %0
  %16 = call i32 (i8*, ...) @printf(i8* getelementptr inbounds ([3 x i8], [3 x i8]* @.str, i64 0, i64 0))
  br label %20

17:                                               ; preds = %0
  %18 = load i32, i32* %4, align 4
  %19 = call i32 (i8*, ...) @printf(i8* getelementptr inbounds ([3 x i8], [3 x i8]* @.str.1, i64 0, i64 0), i32 %18)
  br label %20

20:                                               ; preds = %17, %15
  ret void
}

declare dso_local i32 @gets(...) #2

declare dso_local i32 @printf(i8*, ...) #2


!llvm.module.flags = !{!0}
!llvm.ident = !{!1}

!0 = !{i32 1, !"wchar_size", i32 4}
!1 = !{!"clang version 10.0.0-4ubuntu1 "}
